target datalayout = "e-m:e-p270:32:32-p271:32:32-p272:64:64-i64:64-i128:128-f80:128-n8:16:32:64-S128"
target triple = "x86_64-pc-linux-gnu"

%"class.Luau::CodeGen::UnwindBuilderDwarf2" = type { %"class.Luau::CodeGen::UnwindBuilder", i64, %"class.std::vector", [1024 x i8], ptr, ptr }
%"class.Luau::CodeGen::UnwindBuilder" = type { ptr }
%"class.std::vector" = type { %"struct.std::_Vector_base" }
%"struct.std::_Vector_base" = type { %"struct.std::_Vector_base<Luau::CodeGen::UnwindFunctionDwarf2, std::allocator<Luau::CodeGen::UnwindFunctionDwarf2>>::_Vector_impl" }
%"struct.std::_Vector_base<Luau::CodeGen::UnwindFunctionDwarf2, std::allocator<Luau::CodeGen::UnwindFunctionDwarf2>>::_Vector_impl" = type { %"struct.std::_Vector_base<Luau::CodeGen::UnwindFunctionDwarf2, std::allocator<Luau::CodeGen::UnwindFunctionDwarf2>>::_Vector_impl_data" }
%"struct.std::_Vector_base<Luau::CodeGen::UnwindFunctionDwarf2, std::allocator<Luau::CodeGen::UnwindFunctionDwarf2>>::_Vector_impl_data" = type { ptr, ptr, ptr }

; Function Attrs: mustprogress nounwind uwtable
define internal noundef ptr @_ZL13alignPositionPhS_(ptr noundef %0, ptr noundef %1) #0 {
  %3 = alloca ptr, align 8
  %4 = alloca ptr, align 8
  %5 = alloca i64, align 8
  %6 = alloca i64, align 8
  %7 = alloca i64, align 8
  store ptr %0, ptr %3, align 8, !tbaa !23
  store ptr %1, ptr %4, align 8, !tbaa !23
  call void @llvm.lifetime.start.p0(i64 8, ptr %5) #11
  %8 = load ptr, ptr %4, align 8, !tbaa !23
  %9 = load ptr, ptr %3, align 8, !tbaa !23
  %10 = ptrtoint ptr %8 to i64
  %11 = ptrtoint ptr %9 to i64
  %12 = sub i64 %10, %11
  store i64 %12, ptr %5, align 8, !tbaa !9
  call void @llvm.lifetime.start.p0(i64 8, ptr %6) #11
  %13 = load i64, ptr %5, align 8, !tbaa !9
  %14 = add i64 %13, 8
  %15 = sub i64 %14, 1
  %16 = and i64 %15, -8
  %17 = load i64, ptr %5, align 8, !tbaa !9
  %18 = sub i64 %16, %17
  store i64 %18, ptr %6, align 8, !tbaa !9
  call void @llvm.lifetime.start.p0(i64 8, ptr %7) #11
  store i64 0, ptr %7, align 8, !tbaa !9
  br label %19

19:                                               ; preds = %27, %2
  %20 = load i64, ptr %7, align 8, !tbaa !9
  %21 = load i64, ptr %6, align 8, !tbaa !9
  %22 = icmp ult i64 %20, %21
  br i1 %22, label %24, label %23

23:                                               ; preds = %19
  call void @llvm.lifetime.end.p0(i64 8, ptr %7) #11
  br label %30

24:                                               ; preds = %19
  %25 = load ptr, ptr %4, align 8, !tbaa !23
  %26 = call noundef ptr @_Z7writeu8Phh(ptr noundef %25, i8 noundef zeroext 0)
  store ptr %26, ptr %4, align 8, !tbaa !23
  br label %27

27:                                               ; preds = %24
  %28 = load i64, ptr %7, align 8, !tbaa !9
  %29 = add i64 %28, 1
  store i64 %29, ptr %7, align 8, !tbaa !9
  br label %19, !llvm.loop !29

30:                                               ; preds = %23
  %31 = load ptr, ptr %4, align 8, !tbaa !23
  call void @llvm.lifetime.end.p0(i64 8, ptr %6) #11
  call void @llvm.lifetime.end.p0(i64 8, ptr %5) #11
  ret ptr %31
}

; Function Attrs: mustprogress nounwind uwtable
define internal noundef ptr @_ZL27defineSavedRegisterLocationPhij(ptr noundef %0, i32 noundef %1, i32 noundef %2) #0 {
  %4 = alloca ptr, align 8
  %5 = alloca i32, align 4
  %6 = alloca i32, align 4
  store ptr %0, ptr %4, align 8, !tbaa !23
  store i32 %1, ptr %5, align 4, !tbaa !24
  store i32 %2, ptr %6, align 4, !tbaa !24
  %7 = load i32, ptr %5, align 4, !tbaa !24
  %8 = icmp sle i32 %7, 63
  br i1 %8, label %9, label %15

9:                                                ; preds = %3
  %10 = load ptr, ptr %4, align 8, !tbaa !23
  %11 = load i32, ptr %5, align 4, !tbaa !24
  %12 = add nsw i32 128, %11
  %13 = trunc i32 %12 to i8
  %14 = call noundef ptr @_Z7writeu8Phh(ptr noundef %10, i8 noundef zeroext %13)
  store ptr %14, ptr %4, align 8, !tbaa !23
  br label %22

15:                                               ; preds = %3
  %16 = load ptr, ptr %4, align 8, !tbaa !23
  %17 = call noundef ptr @_Z7writeu8Phh(ptr noundef %16, i8 noundef zeroext 5)
  store ptr %17, ptr %4, align 8, !tbaa !23
  %18 = load ptr, ptr %4, align 8, !tbaa !23
  %19 = load i32, ptr %5, align 4, !tbaa !24
  %20 = sext i32 %19 to i64
  %21 = call noundef ptr @_Z12writeuleb128Phm(ptr noundef %18, i64 noundef %20)
  store ptr %21, ptr %4, align 8, !tbaa !23
  br label %22

22:                                               ; preds = %15, %9
  %23 = load ptr, ptr %4, align 8, !tbaa !23
  %24 = load i32, ptr %6, align 4, !tbaa !24
  %25 = udiv i32 %24, 8
  %26 = zext i32 %25 to i64
  %27 = call noundef ptr @_Z12writeuleb128Phm(ptr noundef %23, i64 noundef %26)
  store ptr %27, ptr %4, align 8, !tbaa !23
  %28 = load ptr, ptr %4, align 8, !tbaa !23
  ret ptr %28
}

; Function Attrs: mustprogress nounwind uwtable
define internal noundef ptr @_ZL19defineCfaExpressionPhij(ptr noundef %0, i32 noundef %1, i32 noundef %2) #0 {
  %4 = alloca ptr, align 8
  %5 = alloca i32, align 4
  %6 = alloca i32, align 4
  store ptr %0, ptr %4, align 8, !tbaa !23
  store i32 %1, ptr %5, align 4, !tbaa !24
  store i32 %2, ptr %6, align 4, !tbaa !24
  %7 = load ptr, ptr %4, align 8, !tbaa !23
  %8 = call noundef ptr @_Z7writeu8Phh(ptr noundef %7, i8 noundef zeroext 12)
  store ptr %8, ptr %4, align 8, !tbaa !23
  %9 = load ptr, ptr %4, align 8, !tbaa !23
  %10 = load i32, ptr %5, align 4, !tbaa !24
  %11 = sext i32 %10 to i64
  %12 = call noundef ptr @_Z12writeuleb128Phm(ptr noundef %9, i64 noundef %11)
  store ptr %12, ptr %4, align 8, !tbaa !23
  %13 = load ptr, ptr %4, align 8, !tbaa !23
  %14 = load i32, ptr %6, align 4, !tbaa !24
  %15 = zext i32 %14 to i64
  %16 = call noundef ptr @_Z12writeuleb128Phm(ptr noundef %13, i64 noundef %15)
  store ptr %16, ptr %4, align 8, !tbaa !23
  %17 = load ptr, ptr %4, align 8, !tbaa !23
  ret ptr %17
}

; Function Attrs: inlinehint mustprogress nounwind uwtable
define linkonce_odr dso_local noundef ptr @_Z12writeuleb128Phm(ptr noundef %0, i64 noundef %1) #3 comdat {
  %3 = alloca ptr, align 8
  %4 = alloca i64, align 8
  %5 = alloca i8, align 1
  store ptr %0, ptr %3, align 8, !tbaa !23
  store i64 %1, ptr %4, align 8, !tbaa !9
  br label %6

6:                                                ; preds = %23, %2
  call void @llvm.lifetime.start.p0(i64 1, ptr %5) #11
  %7 = load i64, ptr %4, align 8, !tbaa !9
  %8 = and i64 %7, 127
  %9 = trunc i64 %8 to i8
  store i8 %9, ptr %5, align 1, !tbaa !26
  %10 = load i64, ptr %4, align 8, !tbaa !9
  %11 = lshr i64 %10, 7
  store i64 %11, ptr %4, align 8, !tbaa !9
  %12 = load i64, ptr %4, align 8, !tbaa !9
  %13 = icmp ne i64 %12, 0
  br i1 %13, label %14, label %19

14:                                               ; preds = %6
  %15 = load i8, ptr %5, align 1, !tbaa !26
  %16 = zext i8 %15 to i32
  %17 = or i32 %16, 128
  %18 = trunc i32 %17 to i8
  store i8 %18, ptr %5, align 1, !tbaa !26
  br label %19

19:                                               ; preds = %14, %6
  %20 = load i8, ptr %5, align 1, !tbaa !26
  %21 = load ptr, ptr %3, align 8, !tbaa !23
  %22 = getelementptr inbounds nuw i8, ptr %21, i32 1
  store ptr %22, ptr %3, align 8, !tbaa !23
  store i8 %20, ptr %21, align 1, !tbaa !26
  call void @llvm.lifetime.end.p0(i64 1, ptr %5) #11
  br label %23

23:                                               ; preds = %19
  %24 = load i64, ptr %4, align 8, !tbaa !9
  %25 = icmp ne i64 %24, 0
  br i1 %25, label %6, label %26, !llvm.loop !27

26:                                               ; preds = %23
  %27 = load ptr, ptr %3, align 8, !tbaa !23
  ret ptr %27
}

; Function Attrs: inlinehint mustprogress nounwind uwtable
define linkonce_odr dso_local noundef ptr @_Z7writeu8Phh(ptr noundef %0, i8 noundef zeroext %1) #3 comdat {
  %3 = alloca ptr, align 8
  %4 = alloca i8, align 1
  store ptr %0, ptr %3, align 8, !tbaa !23
  store i8 %1, ptr %4, align 1, !tbaa !26
  %5 = load i8, ptr %4, align 1, !tbaa !26
  %6 = load ptr, ptr %3, align 8, !tbaa !23
  store i8 %5, ptr %6, align 1, !tbaa !26
  %7 = load ptr, ptr %3, align 8, !tbaa !23
  %8 = getelementptr inbounds nuw i8, ptr %7, i64 1
  ret ptr %8
}

; Function Attrs: inlinehint mustprogress nounwind uwtable
define linkonce_odr dso_local noundef ptr @_Z8writeu32Phj(ptr noundef %0, i32 noundef %1) #3 comdat {
  %3 = alloca ptr, align 8
  %4 = alloca i32, align 4
  store ptr %0, ptr %3, align 8, !tbaa !23
  store i32 %1, ptr %4, align 4, !tbaa !24
  %5 = load ptr, ptr %3, align 8, !tbaa !23
  call void @llvm.memcpy.p0.p0.i64(ptr align 1 %5, ptr align 4 %4, i64 4, i1 false)
  %6 = load ptr, ptr %3, align 8, !tbaa !23
  %7 = getelementptr inbounds nuw i8, ptr %6, i64 4
  ret ptr %7
}

; Function Attrs: mustprogress uwtable
define dso_local void @_ZN4Luau7CodeGen19UnwindBuilderDwarf29startInfoENS0_13UnwindBuilder4ArchE(ptr noundef nonnull align 8 dereferenceable(1080) %0, i32 noundef %1) unnamed_addr #1 align 2 {
  %3 = alloca ptr, align 8
  %4 = alloca i32, align 4
  %5 = alloca ptr, align 8
  %6 = alloca i32, align 4
  store ptr %0, ptr %3, align 8, !tbaa !4
  store i32 %1, ptr %4, align 4, !tbaa !20
  %7 = load ptr, ptr %3, align 8
  call void @llvm.lifetime.start.p0(i64 8, ptr %5) #11
  %8 = getelementptr inbounds nuw %"class.Luau::CodeGen::UnwindBuilderDwarf2", ptr %7, i32 0, i32 4
  %9 = load ptr, ptr %8, align 8, !tbaa !22
  store ptr %9, ptr %5, align 8, !tbaa !23
  %10 = getelementptr inbounds nuw %"class.Luau::CodeGen::UnwindBuilderDwarf2", ptr %7, i32 0, i32 4
  %11 = load ptr, ptr %10, align 8, !tbaa !22
  %12 = call noundef ptr @_Z8writeu32Phj(ptr noundef %11, i32 noundef 0)
  %13 = getelementptr inbounds nuw %"class.Luau::CodeGen::UnwindBuilderDwarf2", ptr %7, i32 0, i32 4
  store ptr %12, ptr %13, align 8, !tbaa !22
  %14 = getelementptr inbounds nuw %"class.Luau::CodeGen::UnwindBuilderDwarf2", ptr %7, i32 0, i32 4
  %15 = load ptr, ptr %14, align 8, !tbaa !22
  %16 = call noundef ptr @_Z8writeu32Phj(ptr noundef %15, i32 noundef 0)
  %17 = getelementptr inbounds nuw %"class.Luau::CodeGen::UnwindBuilderDwarf2", ptr %7, i32 0, i32 4
  store ptr %16, ptr %17, align 8, !tbaa !22
  %18 = getelementptr inbounds nuw %"class.Luau::CodeGen::UnwindBuilderDwarf2", ptr %7, i32 0, i32 4
  %19 = load ptr, ptr %18, align 8, !tbaa !22
  %20 = call noundef ptr @_Z7writeu8Phh(ptr noundef %19, i8 noundef zeroext 1)
  %21 = getelementptr inbounds nuw %"class.Luau::CodeGen::UnwindBuilderDwarf2", ptr %7, i32 0, i32 4
  store ptr %20, ptr %21, align 8, !tbaa !22
  %22 = getelementptr inbounds nuw %"class.Luau::CodeGen::UnwindBuilderDwarf2", ptr %7, i32 0, i32 4
  %23 = load ptr, ptr %22, align 8, !tbaa !22
  %24 = call noundef ptr @_Z7writeu8Phh(ptr noundef %23, i8 noundef zeroext 0)
  %25 = getelementptr inbounds nuw %"class.Luau::CodeGen::UnwindBuilderDwarf2", ptr %7, i32 0, i32 4
  store ptr %24, ptr %25, align 8, !tbaa !22
  call void @llvm.lifetime.start.p0(i64 4, ptr %6) #11
  %26 = load i32, ptr %4, align 4, !tbaa !20
  %27 = icmp eq i32 %26, 1
  %28 = select i1 %27, i32 30, i32 16
  store i32 %28, ptr %6, align 4, !tbaa !24
  %29 = getelementptr inbounds nuw %"class.Luau::CodeGen::UnwindBuilderDwarf2", ptr %7, i32 0, i32 4
  %30 = load ptr, ptr %29, align 8, !tbaa !22
  %31 = call noundef ptr @_Z12writeuleb128Phm(ptr noundef %30, i64 noundef 1)
  %32 = getelementptr inbounds nuw %"class.Luau::CodeGen::UnwindBuilderDwarf2", ptr %7, i32 0, i32 4
  store ptr %31, ptr %32, align 8, !tbaa !22
  %33 = getelementptr inbounds nuw %"class.Luau::CodeGen::UnwindBuilderDwarf2", ptr %7, i32 0, i32 4
  %34 = load ptr, ptr %33, align 8, !tbaa !22
  %35 = call noundef ptr @_Z12writeuleb128Phm(ptr noundef %34, i64 noundef 120)
  %36 = getelementptr inbounds nuw %"class.Luau::CodeGen::UnwindBuilderDwarf2", ptr %7, i32 0, i32 4
  store ptr %35, ptr %36, align 8, !tbaa !22
  %37 = getelementptr inbounds nuw %"class.Luau::CodeGen::UnwindBuilderDwarf2", ptr %7, i32 0, i32 4
  %38 = load ptr, ptr %37, align 8, !tbaa !22
  %39 = load i32, ptr %6, align 4, !tbaa !24
  %40 = trunc i32 %39 to i8
  %41 = call noundef ptr @_Z7writeu8Phh(ptr noundef %38, i8 noundef zeroext %40)
  %42 = getelementptr inbounds nuw %"class.Luau::CodeGen::UnwindBuilderDwarf2", ptr %7, i32 0, i32 4
  store ptr %41, ptr %42, align 8, !tbaa !22
  %43 = load i32, ptr %4, align 4, !tbaa !20
  %44 = icmp eq i32 %43, 1
  br i1 %44, label %45, label %50

45:                                               ; preds = %2
  %46 = getelementptr inbounds nuw %"class.Luau::CodeGen::UnwindBuilderDwarf2", ptr %7, i32 0, i32 4
  %47 = load ptr, ptr %46, align 8, !tbaa !22
  %48 = call noundef ptr @_ZL19defineCfaExpressionPhij(ptr noundef %47, i32 noundef 31, i32 noundef 0)
  %49 = getelementptr inbounds nuw %"class.Luau::CodeGen::UnwindBuilderDwarf2", ptr %7, i32 0, i32 4
  store ptr %48, ptr %49, align 8, !tbaa !22
  br label %59

50:                                               ; preds = %2
  %51 = getelementptr inbounds nuw %"class.Luau::CodeGen::UnwindBuilderDwarf2", ptr %7, i32 0, i32 4
  %52 = load ptr, ptr %51, align 8, !tbaa !22
  %53 = call noundef ptr @_ZL19defineCfaExpressionPhij(ptr noundef %52, i32 noundef 7, i32 noundef 8)
  %54 = getelementptr inbounds nuw %"class.Luau::CodeGen::UnwindBuilderDwarf2", ptr %7, i32 0, i32 4
  store ptr %53, ptr %54, align 8, !tbaa !22
  %55 = getelementptr inbounds nuw %"class.Luau::CodeGen::UnwindBuilderDwarf2", ptr %7, i32 0, i32 4
  %56 = load ptr, ptr %55, align 8, !tbaa !22
  %57 = call noundef ptr @_ZL27defineSavedRegisterLocationPhij(ptr noundef %56, i32 noundef 16, i32 noundef 8)
  %58 = getelementptr inbounds nuw %"class.Luau::CodeGen::UnwindBuilderDwarf2", ptr %7, i32 0, i32 4
  store ptr %57, ptr %58, align 8, !tbaa !22
  br label %59

59:                                               ; preds = %50, %45
  %60 = load ptr, ptr %5, align 8, !tbaa !23
  %61 = getelementptr inbounds nuw %"class.Luau::CodeGen::UnwindBuilderDwarf2", ptr %7, i32 0, i32 4
  %62 = load ptr, ptr %61, align 8, !tbaa !22
  %63 = call noundef ptr @_ZL13alignPositionPhS_(ptr noundef %60, ptr noundef %62)
  %64 = getelementptr inbounds nuw %"class.Luau::CodeGen::UnwindBuilderDwarf2", ptr %7, i32 0, i32 4
  store ptr %63, ptr %64, align 8, !tbaa !22
  %65 = load ptr, ptr %5, align 8, !tbaa !23
  %66 = getelementptr inbounds nuw %"class.Luau::CodeGen::UnwindBuilderDwarf2", ptr %7, i32 0, i32 4
  %67 = load ptr, ptr %66, align 8, !tbaa !22
  %68 = load ptr, ptr %5, align 8, !tbaa !23
  %69 = ptrtoint ptr %67 to i64
  %70 = ptrtoint ptr %68 to i64
  %71 = sub i64 %69, %70
  %72 = sub nsw i64 %71, 4
  %73 = trunc i64 %72 to i32
  %74 = call noundef ptr @_Z8writeu32Phj(ptr noundef %65, i32 noundef %73)
  call void @llvm.lifetime.end.p0(i64 4, ptr %6) #11
  call void @llvm.lifetime.end.p0(i64 8, ptr %5) #11
  ret void
}