; Function Attrs: mustprogress nofree norecurse nosync nounwind willreturn memory(write, argmem: readwrite, inaccessiblemem: none) uwtable
define dso_local void @_ZN4Luau7CodeGen19UnwindBuilderDwarf29startInfoENS0_13UnwindBuilder4ArchE(ptr noundef nonnull align 8 captures(none) dereferenceable(1080) %0, i32 noundef %1) unnamed_addr #2 align 2 {
_Z12writeuleb128Phm.exit:
  %2 = getelementptr inbounds nuw i8, ptr %0, i64 1064
  %3 = load ptr, ptr %2, align 8, !tbaa !17
  store i32 0, ptr %3, align 1
  %4 = getelementptr inbounds nuw i8, ptr %3, i64 4
  store i32 0, ptr %4, align 1
  %5 = getelementptr inbounds nuw i8, ptr %3, i64 8
  store i8 1, ptr %5, align 1, !tbaa !18
  %6 = getelementptr inbounds nuw i8, ptr %3, i64 9
  store i8 0, ptr %6, align 1, !tbaa !18
  %7 = getelementptr inbounds nuw i8, ptr %3, i64 10
  %8 = icmp eq i32 %1, 1
  store i8 1, ptr %7, align 1, !tbaa !18
  %9 = getelementptr inbounds nuw i8, ptr %3, i64 11
  store ptr %9, ptr %2, align 8, !tbaa !17
  store i8 120, ptr %9, align 1, !tbaa !18
  %10 = getelementptr inbounds nuw i8, ptr %3, i64 12
  %11 = select i1 %8, i8 30, i8 16
  store i8 %11, ptr %10, align 1, !tbaa !18
  %12 = getelementptr inbounds nuw i8, ptr %3, i64 13
  store i8 12, ptr %12, align 1, !tbaa !18
  %13 = getelementptr inbounds nuw i8, ptr %3, i64 14
  %14 = getelementptr inbounds nuw i8, ptr %3, i64 15
  %15 = getelementptr inbounds nuw i8, ptr %3, i64 16
  br i1 %8, label %16, label %17

16:                                               ; preds = %_Z12writeuleb128Phm.exit
  store i8 31, ptr %13, align 1, !tbaa !18
  store i8 0, ptr %14, align 1, !tbaa !18
  br label %_ZL27defineSavedRegisterLocationPhij.exit

17:                                               ; preds = %_Z12writeuleb128Phm.exit
  store i8 7, ptr %13, align 1, !tbaa !18
  store i8 8, ptr %14, align 1, !tbaa !18
  store i8 -112, ptr %15, align 1, !tbaa !18
  %18 = getelementptr inbounds nuw i8, ptr %3, i64 17
  %19 = getelementptr inbounds nuw i8, ptr %3, i64 18
  store i8 1, ptr %18, align 1, !tbaa !18
  br label %_ZL27defineSavedRegisterLocationPhij.exit, !llvm.loop !19

_ZL27defineSavedRegisterLocationPhij.exit:        ; preds = %17, %16
  %storemerge = phi ptr [ %15, %16 ], [ %19, %17 ]
  %20 = ptrtoint ptr %storemerge to i64
  %21 = ptrtoint ptr %3 to i64
  %22 = sub i64 %20, %21
  %23 = add i64 %22, 7
  %24 = and i64 %23, -8
  %.not.i13 = icmp eq i64 %24, %22
  br i1 %.not.i13, label %_ZL13alignPositionPhS_.exit, label %.lr.ph.preheader.i

.lr.ph.preheader.i:                               ; preds = %_ZL27defineSavedRegisterLocationPhij.exit
  %25 = sub i64 %24, %22
  %umax.i = tail call i64 @llvm.umax.i64(i64 %25, i64 1)
  tail call void @llvm.memset.p0.i64(ptr noundef nonnull align 1 dereferenceable(1) %storemerge, i8 0, i64 %umax.i, i1 false), !tbaa !18
  %scevgep.i = getelementptr i8, ptr %storemerge, i64 %umax.i
  %.pre = ptrtoint ptr %scevgep.i to i64
  %.pre14 = sub i64 %.pre, %21
  br label %_ZL13alignPositionPhS_.exit

_ZL13alignPositionPhS_.exit:                      ; preds = %_ZL27defineSavedRegisterLocationPhij.exit, %.lr.ph.preheader.i
  %.pre-phi15 = phi i64 [ %22, %_ZL27defineSavedRegisterLocationPhij.exit ], [ %.pre14, %.lr.ph.preheader.i ]
  %.08.lcssa.i = phi ptr [ %storemerge, %_ZL27defineSavedRegisterLocationPhij.exit ], [ %scevgep.i, %.lr.ph.preheader.i ]
  store ptr %.08.lcssa.i, ptr %2, align 8, !tbaa !17
  %26 = trunc i64 %.pre-phi15 to i32
  %27 = add i32 %26, -4
  store i32 %27, ptr %3, align 1
  ret void
}